target datalayout = "e-m:e-p270:32:32-p271:32:32-p272:64:64-i64:64-i128:128-f80:128-n8:16:32:64-S128"
target triple = "x86_64-pc-linux-gnu"

@.str.238 = private unnamed_addr constant [9 x i8] c"%s/%s_%u\00", align 1
@.str.243 = private unnamed_addr constant [15 x i8] c"_1_ole10native\00", align 1
@.str.244 = private unnamed_addr constant [93 x i8] c"cli_ole2_tempdir_scan_embedded_ole10: uniq_get('_1_ole10native') failed with ret code (%d)!\0A\00", align 1

; Function Attrs: nounwind uwtable
define internal i32 @cli_ole2_tempdir_scan_embedded_ole10(ptr noundef %0, ptr noundef %1, ptr noundef %2) #0 {
  %4 = alloca ptr, align 8
  %5 = alloca ptr, align 8
  %6 = alloca ptr, align 8
  %7 = alloca i32, align 4
  %8 = alloca i32, align 4
  %9 = alloca [1024 x i8], align 16
  %10 = alloca ptr, align 8
  %11 = alloca i32, align 4
  %12 = alloca i32, align 4
  store ptr %0, ptr %4, align 8
  store ptr %1, ptr %5, align 8
  store ptr %2, ptr %6, align 8
  store i32 0, ptr %7, align 4
  store i32 0, ptr %11, align 4
  store i32 -1, ptr %12, align 4
  %13 = load ptr, ptr %6, align 8
  %14 = call i32 @uniq_get(ptr noundef %13, ptr noundef @.str.243, i32 noundef 14, ptr noundef %10, ptr noundef %11)
  store i32 %14, ptr %8, align 4
  %15 = icmp ne i32 0, %14
  br i1 %15, label %16, label %19

16:                                               ; preds = %3
  %17 = load i32, ptr %8, align 4
  call void (ptr, ...) @cli_dbgmsg(ptr noundef @.str.244, i32 noundef %17)
  %18 = load i32, ptr %8, align 4
  store i32 %18, ptr %7, align 4
  br label %51

19:                                               ; preds = %3
  br label %20

20:                                               ; preds = %45, %34, %19
  %21 = load i32, ptr %11, align 4
  %22 = icmp ne i32 %21, 0
  br i1 %22, label %23, label %50

23:                                               ; preds = %20
  %24 = getelementptr inbounds [1024 x i8], ptr %9, i64 0, i64 0
  %25 = load ptr, ptr %4, align 8
  %26 = load ptr, ptr %10, align 8
  %27 = load i32, ptr %11, align 4
  %28 = call i32 (ptr, i64, ptr, ...) @snprintf(ptr noundef %24, i64 noundef 1024, ptr noundef @.str.238, ptr noundef %25, ptr noundef %26, i32 noundef %27) #11
  %29 = getelementptr inbounds [1024 x i8], ptr %9, i64 0, i64 1023
  store i8 0, ptr %29, align 1
  %30 = getelementptr inbounds [1024 x i8], ptr %9, i64 0, i64 0
  %31 = call i32 (ptr, i32, ...) @open(ptr noundef %30, i32 noundef 0)
  store i32 %31, ptr %12, align 4
  %32 = load i32, ptr %12, align 4
  %33 = icmp slt i32 %32, 0
  br i1 %33, label %34, label %37

34:                                               ; preds = %23
  %35 = load i32, ptr %11, align 4
  %36 = add i32 %35, -1
  store i32 %36, ptr %11, align 4
  br label %20

37:                                               ; preds = %23
  %38 = load i32, ptr %12, align 4
  %39 = load ptr, ptr %5, align 8
  %40 = call i32 @cli_scan_ole10(i32 noundef %38, ptr noundef %39)
  store i32 %40, ptr %8, align 4
  %41 = load i32, ptr %8, align 4
  %42 = icmp ne i32 0, %41
  br i1 %42, label %43, label %45

43:                                               ; preds = %37
  %44 = load i32, ptr %8, align 4
  store i32 %44, ptr %7, align 4
  br label %51

45:                                               ; preds = %37
  %46 = load i32, ptr %12, align 4
  %47 = call i32 @close(i32 noundef %46)
  store i32 -1, ptr %12, align 4
  %48 = load i32, ptr %11, align 4
  %49 = add i32 %48, -1
  store i32 %49, ptr %11, align 4
  br label %20

50:                                               ; preds = %20
  br label %51

51:                                               ; preds = %50, %43, %16
  %52 = load i32, ptr %12, align 4
  %53 = icmp sge i32 %52, 0
  br i1 %53, label %54, label %57

54:                                               ; preds = %51
  %55 = load i32, ptr %12, align 4
  %56 = call i32 @close(i32 noundef %55)
  br label %57

57:                                               ; preds = %54, %51
  %58 = load i32, ptr %7, align 4
  ret i32 %58
}