; Function Attrs: nounwind uwtable
define internal fastcc i32 @cli_ole2_tempdir_scan_embedded_ole10(ptr noundef nonnull %0, ptr noundef %1, ptr noundef nonnull %2) unnamed_addr #0 {
  %4 = alloca [1024 x i8], align 16
  %5 = alloca ptr, align 8
  %6 = alloca i32, align 4
  store i32 0, ptr %6, align 4
  %7 = call i32 @uniq_get(ptr noundef nonnull %2, ptr noundef nonnull @.str.243, i32 noundef 14, ptr noundef nonnull %5, ptr noundef nonnull %6) #16
  %.not = icmp eq i32 %7, 0
  br i1 %.not, label %thread-pre-split, label %8

8:                                                ; preds = %3
  call void (ptr, ...) @cli_dbgmsg(ptr noundef nonnull @.str.244, i32 noundef %7) #16
  br label %.thread

thread-pre-split:                                 ; preds = %3
  %.pr = load i32, ptr %6, align 4
  %.not1824 = icmp eq i32 %.pr, 0
  br i1 %.not1824, label %.thread, label %.lr.ph

.lr.ph:                                           ; preds = %thread-pre-split
  %9 = getelementptr inbounds nuw i8, ptr %4, i64 1023
  br label %10

10:                                               ; preds = %.lr.ph, %.backedge
  %11 = phi i32 [ %.pr, %.lr.ph ], [ %.be, %.backedge ]
  %12 = load ptr, ptr %5, align 8
  %13 = call i32 (ptr, i64, ptr, ...) @snprintf(ptr noundef nonnull dereferenceable(1) %4, i64 noundef 1024, ptr noundef nonnull @.str.238, ptr noundef nonnull %0, ptr noundef %12, i32 noundef %11) #16
  store i8 0, ptr %9, align 1
  %14 = call i32 (ptr, i32, ...) @open(ptr noundef nonnull %4, i32 noundef 0) #16
  %15 = icmp slt i32 %14, 0
  br i1 %15, label %.backedge, label %16

.backedge:                                        ; preds = %16, %10
  %.be.in = load i32, ptr %6, align 4
  %.be = add i32 %.be.in, -1
  store i32 %.be, ptr %6, align 4
  %.not18 = icmp eq i32 %.be, 0
  br i1 %.not18, label %.thread, label %10

16:                                               ; preds = %10
  %17 = call i32 @cli_scan_ole10(i32 noundef %14, ptr noundef %1) #16
  %.not19 = icmp eq i32 %17, 0
  %18 = call i32 @close(i32 noundef %14) #16
  br i1 %.not19, label %.backedge, label %.thread

.thread:                                          ; preds = %.backedge, %16, %thread-pre-split, %8
  %.01222 = phi i32 [ %7, %8 ], [ 0, %thread-pre-split ], [ 0, %.backedge ], [ %17, %16 ]
  ret i32 %.01222
}